target datalayout = "e-m:e-p270:32:32-p271:32:32-p272:64:64-i64:64-i128:128-f80:128-n8:16:32:64-S128"
target triple = "x86_64-unknown-linux-gnu"

%class.doc_manager = type { %class.tbv_manager, ptr, %class.small_object_allocator }
%class.tbv_manager = type { %class.fixed_bit_vector_manager, %class.ptr_vector }
%class.fixed_bit_vector_manager = type <{ %class.small_object_allocator, i32, i32, i32, i32, %class.fixed_bit_vector, [4 x i8] }>
%class.fixed_bit_vector = type { [1 x i32] }
%class.ptr_vector = type { %class.vector }
%class.vector = type { ptr }
%class.small_object_allocator = type { [32 x ptr], [32 x ptr], i64 }

; Function Attrs: mustprogress nounwind uwtable
define hidden void @_ZN11doc_managerD2Ev(ptr noundef nonnull align 8 dereferenceable(1080) %this) unnamed_addr #5 align 2 personality ptr @__gxx_personality_v0 {
entry:
  %this.addr = alloca ptr, align 8
  store ptr %this, ptr %this.addr, align 8
  %this1 = load ptr, ptr %this.addr, align 8
  %m = getelementptr inbounds %class.doc_manager, ptr %this1, i32 0, i32 0
  %m_full = getelementptr inbounds %class.doc_manager, ptr %this1, i32 0, i32 1
  %0 = load ptr, ptr %m_full, align 8
  invoke void @_ZN11tbv_manager10deallocateEP3tbv(ptr noundef nonnull align 8 dereferenceable(552) %m, ptr noundef %0)
          to label %invoke.cont unwind label %terminate.lpad

invoke.cont:                                      ; preds = %entry
  %m_alloc = getelementptr inbounds %class.doc_manager, ptr %this1, i32 0, i32 2
  call void @_ZN22small_object_allocatorD1Ev(ptr noundef nonnull align 8 dereferenceable(520) %m_alloc) #3
  %m2 = getelementptr inbounds %class.doc_manager, ptr %this1, i32 0, i32 0
  call void @_ZN11tbv_managerD1Ev(ptr noundef nonnull align 8 dereferenceable(552) %m2) #3
  ret void

terminate.lpad:                                   ; preds = %entry
  %1 = landingpad { ptr, i32 }
          catch ptr null
  %2 = extractvalue { ptr, i32 } %1, 0
  call void @__clang_call_terminate(ptr %2) #12
  unreachable
}