; Function Attrs: mustprogress nounwind uwtable
define hidden void @_ZN11doc_managerD2Ev(ptr noundef nonnull align 8 dereferenceable(1080) %this) unnamed_addr #4 align 2 personality ptr @__gxx_personality_v0 {
entry:
  %m_full = getelementptr inbounds i8, ptr %this, i64 552
  %0 = load ptr, ptr %m_full, align 8
  invoke void @_ZN11tbv_manager10deallocateEP3tbv(ptr noundef nonnull align 8 dereferenceable(552) %this, ptr noundef %0)
          to label %invoke.cont unwind label %terminate.lpad

invoke.cont:                                      ; preds = %entry
  %m_alloc = getelementptr inbounds i8, ptr %this, i64 560
  tail call void @_ZN22small_object_allocatorD1Ev(ptr noundef nonnull align 8 dereferenceable(520) %m_alloc) #16
  tail call void @_ZN11tbv_managerD1Ev(ptr noundef nonnull align 8 dereferenceable(552) %this) #16
  ret void

terminate.lpad:                                   ; preds = %entry
  %1 = landingpad { ptr, i32 }
          catch ptr null
  %2 = extractvalue { ptr, i32 } %1, 0
  tail call void @__clang_call_terminate(ptr %2) #17
  unreachable
}